(lp0
S'andrew'
p1
aS'andrew_one'
p2
aS'brennan_one'
p3
aS'andrew_one'
p4
aS'brennan_one'
p5
aS'test_one'
p6
aS'andrew_one'
p7
aS'andrew_one'
p8
aS'test_one'
p9
aS'andrew_one'
p10
aS'andrew_one'
p11
aS'andrew_one'
p12
aS'a_one'
p13
aS'b_one'
p14
aS'c_one'
p15
aS'd_one'
p16
aS'a_one'
p17
aS'a_one'
p18
aS'b_one'
p19
aS'c_one'
p20
aS'andrew_one'
p21
aS'b_one'
p22
a.