(lp0
(dp1
S'node1'
p2
I1
sS'riddle'
p3
F1.0
sS'node3'
p4
I1
sS'node2'
p5
I1
sS'name'
p6
S'william_node_192.175.0.102'
p7
sa(dp8
g2
I1
sg3
F1.0
sg4
I1
sg5
I1
sg6
S'randy_node_192.175.0.102'
p9
sa(dp10
g2
I1
sg3
F1.0
sg4
I1
sg5
I1
sg6
S'tyler_node_192.175.0.102'
p11
sa(dp12
S'node1'
p13
I1
sS'riddle'
p14
F3.0
sS'node3'
p15
I0
sS'node2'
p16
I0
sS'name'
p17
S'andrew-davis_192.175.0.100'
p18
sa(dp19
S'node1'
p20
I1
sS'riddle'
p21
F2.0
sS'node3'
p22
I0
sS'node2'
p23
I0
sS'name'
p24
S'andrew-davis_192.175.0.100'
p25
sa.