(lp0
(dp1
S'node1'
p2
I1
sS'riddle'
p3
F1.0
sS'node3'
p4
I1
sS'node2'
p5
I1
sS'name'
p6
S'andrew-davis_node_10.248.63.164'
p7
sa(dp8
g2
I1
sg3
F1.0
sg4
I1
sg5
I1
sg6
S'lonnie_node_10.248.63.164'
p9
sa(dp10
g2
I1
sg3
F1.0
sg4
I1
sg5
I1
sg6
S'william_node_10.248.63.164'
p11
sa.