(lp0
(dp1
S'node1'
p2
I1
sS'riddle'
p3
F1.0
sS'node3'
p4
I1
sS'node2'
p5
I1
sS'name'
p6
S'lonnie_node_255.255.255.255'
p7
sa(dp8
g2
I1
sg3
F1.0
sg4
I1
sg5
I1
sg6
S'william_node_255.255.255.255'
p9
sa(dp10
g2
I1
sg3
F1.0
sg4
I1
sg5
I1
sg6
S'andrew_node_255.255.255.255'
p11
sa(dp12
S'node1'
p13
I1
sS'riddle'
p14
F2.0
sS'node3'
p15
I0
sS'node2'
p16
I0
sS'name'
p17
Vhivenet-face_node_10.248.63.164
p18
sa(dp19
S'node1'
p20
I1
sS'riddle'
p21
F1.0
sS'node3'
p22
I0
sS'node2'
p23
I0
sS'name'
p24
Vhivenet-face_node_10.248.63.164
p25
sa.