(lp0
(dp1
S'node1'
p2
I1
sS'riddle'
p3
F1.0
sS'node3'
p4
I1
sS'node2'
p5
I1
sS'name'
p6
S'test-me_node_255.255.255.255'
p7
sa(dp8
g2
I1
sg3
F1.0
sg4
I1
sg5
I1
sg6
S'lonnie_node_255.255.255.255'
p9
sa(dp10
g2
I1
sg3
F1.0
sg4
I1
sg5
I1
sg6
S'william_node_255.255.255.255'
p11
sa(dp12
g2
I1
sg3
F1.0
sg4
I1
sg5
I1
sg6
S'andrew_node_255.255.255.255'
p13
sa(dp14
S'node1'
p15
I1
sS'riddle'
p16
F1.0
sS'node3'
p17
I0
sS'node2'
p18
I0
sS'name'
p19
S'test-me_node_192.175.0.100'
p20
sa(dp21
S'node1'
p22
I1
sS'riddle'
p23
F1.0
sS'node3'
p24
I0
sS'node2'
p25
I0
sS'name'
p26
S'test-me_node_10.248.63.164'
p27
sa(dp28
S'node1'
p29
I1
sS'riddle'
p30
F2.0
sS'node3'
p31
I0
sS'node2'
p32
I0
sS'name'
p33
S'test-me_node_10.248.63.164'
p34
sa(dp35
S'node1'
p36
I1
sS'riddle'
p37
F2.0
sS'node3'
p38
I0
sS'node2'
p39
I0
sS'name'
p40
S'test-me_node_10.248.63.164'
p41
sa(dp42
S'node1'
p43
I1
sS'riddle'
p44
F3.0
sS'node3'
p45
I0
sS'node2'
p46
I0
sS'name'
p47
S'test-me_node_192.175.0.100'
p48
sa(dp49
S'node1'
p50
I1
sS'riddle'
p51
F1.0
sS'node3'
p52
I0
sS'node2'
p53
I0
sS'name'
p54
S'test-me_node_192.175.0.100'
p55
sa(dp56
S'node1'
p57
I1
sS'riddle'
p58
F3.0
sS'node3'
p59
I0
sS'node2'
p60
I0
sS'name'
p61
S'test-me_node_192.175.0.100'
p62
sa(dp63
S'node1'
p64
I1
sS'riddle'
p65
F1.0
sS'node3'
p66
I0
sS'node2'
p67
I0
sS'name'
p68
S'test-me_node_192.175.0.100'
p69
sa(dp70
S'node1'
p71
I1
sS'riddle'
p72
F3.0
sS'node3'
p73
I0
sS'node2'
p74
I0
sS'name'
p75
S'test-me_node_192.175.0.100'
p76
sa(dp77
S'node1'
p78
I1
sS'riddle'
p79
F1.0
sS'node3'
p80
I0
sS'node2'
p81
I0
sS'name'
p82
S'hivenet-face_node_192.175.0.100'
p83
sa(dp84
S'node1'
p85
I1
sS'riddle'
p86
F2.0
sS'node3'
p87
I0
sS'node2'
p88
I0
sS'name'
p89
S'hivenet-face_node_192.175.0.100'
p90
sa(dp91
S'node1'
p92
I1
sS'riddle'
p93
F1.0
sS'node3'
p94
I0
sS'node2'
p95
I0
sS'name'
p96
S'hivenet-face_node_192.175.0.100'
p97
sa(dp98
S'node1'
p99
I1
sS'riddle'
p100
F2.0
sS'node3'
p101
I0
sS'node2'
p102
I0
sS'name'
p103
S'hivenet-face_node_192.175.0.100'
p104
sa(dp105
S'node1'
p106
I1
sS'riddle'
p107
F1.0
sS'node3'
p108
I0
sS'node2'
p109
I0
sS'name'
p110
S'hivenet-face_1'
p111
sa(dp112
S'node1'
p113
I1
sS'riddle'
p114
F3.0
sS'node3'
p115
I0
sS'node2'
p116
I0
sS'name'
p117
S'hivenet-face_1'
p118
sa(dp119
S'node1'
p120
I1
sS'riddle'
p121
F1.0
sS'node3'
p122
I0
sS'node2'
p123
I0
sS'name'
p124
S"hivenet-face_['192.175.0.102', '192.175.0.101']"
p125
sa(dp126
S'node1'
p127
I1
sS'riddle'
p128
F3.0
sS'node3'
p129
I0
sS'node2'
p130
I0
sS'name'
p131
S'hivenet-face_192.175.0.100'
p132
sa(dp133
S'node1'
p134
I1
sS'riddle'
p135
F3.0
sS'node3'
p136
I0
sS'node2'
p137
I0
sS'name'
p138
S'test-me_192.175.0.100'
p139
sa.