(lp0
(dp1
S'node1'
p2
I1
sS'riddle'
p3
F1.0
sS'node3'
p4
I1
sS'node2'
p5
I1
sS'name'
p6
S'andrew_node_10.248.63.164'
p7
sa(dp8
S'node1'
p9
I1
sS'riddle'
p10
F1.0
sS'node3'
p11
I0
sS'node2'
p12
I0
sS'name'
p13
S'sven_node_10.248.63.164'
p14
sa(dp15
S'node1'
p16
I1
sS'riddle'
p17
F1.0
sS'node3'
p18
I0
sS'node2'
p19
I0
sS'name'
p20
S'sven_node_2'
p21
sa.