(lp0
(dp1
S'node1'
p2
I1
sS'riddle'
p3
F1.1
sS'node3'
p4
I0
sS'node2'
p5
I0
sS'name'
p6
S'sven_node_192.168.0.116'
p7
sa(dp8
g6
S'sven_node_255.255.2.255'
p9
sa(dp10
g6
S'sven_node_123.123.123.1'
p11
sa.