(lp0
(dp1
S'node1'
p2
I1
sS'riddle'
p3
NsS'node3'
p4
I1
sS'node2'
p5
I1
sS'name'
p6
S'andrew'
p7
sa(dp8
S'node1'
p9
I1
sS'riddle'
p10
F2.0
sS'node3'
p11
I0
sS'node2'
p12
I0
sS'name'
p13
S'brennan_0'
p14
sa.